; Function Attrs: mustprogress uwtable
define noundef zeroext i1 @_ZNK5draco28AttributeOctahedronTransform16EncodeParametersEPNS_13EncoderBufferE(ptr noundef nonnull readonly align 8 captures(none) dereferenceable(12) %0, ptr noundef %1) unnamed_addr #5 align 2 {
  %3 = alloca i8, align 1
  %4 = getelementptr inbounds nuw i8, ptr %0, i64 8
  %5 = load i32, ptr %4, align 8, !tbaa !20
  %6 = icmp ne i32 %5, -1
  br i1 %6, label %7, label %21

7:                                                ; preds = %2
  call void @llvm.lifetime.start.p0(i64 1, ptr nonnull %3) #17
  %8 = trunc i32 %5 to i8
  store i8 %8, ptr %3, align 1, !tbaa !76
  %9 = getelementptr inbounds nuw i8, ptr %1, i64 32
  %10 = load i64, ptr %9, align 8, !tbaa !77
  %11 = icmp slt i64 %10, 1
  br i1 %11, label %12, label %_ZN5draco13EncoderBuffer6EncodeIhEEbRKT_.exit

12:                                               ; preds = %7
  %13 = getelementptr inbounds nuw i8, ptr %1, i64 8
  %14 = load ptr, ptr %13, align 8, !tbaa !90
  %15 = getelementptr inbounds nuw i8, ptr %3, i64 1
  %16 = load ptr, ptr %1, align 8, !tbaa !90
  %17 = ptrtoint ptr %14 to i64
  %18 = ptrtoint ptr %16 to i64
  %19 = sub i64 %17, %18
  %20 = getelementptr inbounds i8, ptr %16, i64 %19
  call void @_ZNSt6vectorIcSaIcEE15_M_range_insertIPKhEEvN9__gnu_cxx17__normal_iteratorIPcS1_EET_S9_St20forward_iterator_tag(ptr noundef nonnull align 8 dereferenceable(41) %1, ptr %20, ptr noundef nonnull align 1 dereferenceable(1) %3, ptr noundef nonnull %15)
  br label %_ZN5draco13EncoderBuffer6EncodeIhEEbRKT_.exit

_ZN5draco13EncoderBuffer6EncodeIhEEbRKT_.exit:    ; preds = %7, %12
  call void @llvm.lifetime.end.p0(i64 1, ptr nonnull %3) #17
  br label %21

21:                                               ; preds = %2, %_ZN5draco13EncoderBuffer6EncodeIhEEbRKT_.exit
  ret i1 %6
}